; Function Attrs: mustprogress uwtable
define internal fastcc void @"_ZNO8pybind116detail15argument_loaderIJRKNS_6objectEEE4callINS_5tupleENS0_9void_typeERZ23test_submodule_picklingRNS_7module_EE3$_5EENSt9enable_ifIXntsr3std7is_voidIT_EE5valueESE_E4typeEOT1_"(ptr dead_on_unwind noalias nonnull writable align 8 %0, ptr %.0.val) unnamed_addr #5 align 2 personality ptr @__gxx_personality_v0 {
  %2 = alloca %"class.pybind11::detail::accessor.283", align 8
  %3 = alloca %"class.pybind11::detail::accessor.283", align 8
  %4 = alloca %"class.pybind11::detail::accessor.283", align 8
  call void @llvm.lifetime.start.p0(i64 32, ptr nonnull %2) #34, !noalias !1651
  %5 = getelementptr inbounds nuw i8, ptr %2, i64 8
  store ptr %.0.val, ptr %5, align 8, !alias.scope !1656, !noalias !1651
  %6 = getelementptr inbounds nuw i8, ptr %2, i64 16
  store ptr @.str.7, ptr %6, align 8, !tbaa !660, !alias.scope !1656, !noalias !1651
  %7 = getelementptr inbounds nuw i8, ptr %2, i64 24
  store ptr null, ptr %7, align 8, !tbaa !92, !alias.scope !1656, !noalias !1651
  call void @llvm.lifetime.start.p0(i64 32, ptr nonnull %3) #34, !noalias !1651
  %8 = getelementptr inbounds nuw i8, ptr %3, i64 8
  store ptr %.0.val, ptr %8, align 8, !alias.scope !1659, !noalias !1651
  %9 = getelementptr inbounds nuw i8, ptr %3, i64 16
  store ptr @.str.15, ptr %9, align 8, !tbaa !660, !alias.scope !1659, !noalias !1651
  %10 = getelementptr inbounds nuw i8, ptr %3, i64 24
  store ptr null, ptr %10, align 8, !tbaa !92, !alias.scope !1659, !noalias !1651
  call void @llvm.lifetime.start.p0(i64 32, ptr nonnull %4) #34, !noalias !1651
  %11 = getelementptr inbounds nuw i8, ptr %4, i64 8
  store ptr %.0.val, ptr %11, align 8, !alias.scope !1662, !noalias !1651
  %12 = getelementptr inbounds nuw i8, ptr %4, i64 16
  store ptr @.str.135, ptr %12, align 8, !tbaa !660, !alias.scope !1662, !noalias !1651
  %13 = getelementptr inbounds nuw i8, ptr %4, i64 24
  store ptr null, ptr %13, align 8, !tbaa !92, !alias.scope !1662, !noalias !1651
  invoke void @_ZN8pybind1110make_tupleILNS_19return_value_policyE1EJNS_6detail8accessorINS2_17accessor_policies8str_attrEEES6_S6_EEENS_5tupleEDpOT0_(ptr dead_on_unwind nonnull writable sret(%"class.pybind11::tuple") align 8 %0, ptr noundef nonnull align 8 dereferenceable(32) %2, ptr noundef nonnull align 8 dereferenceable(32) %3, ptr noundef nonnull align 8 dereferenceable(32) %4)
          to label %14 unwind label %39

14:                                               ; preds = %1
  %15 = load ptr, ptr %13, align 8, !tbaa !92, !noalias !1651
  %.not.i.i.i.i.i.i = icmp eq ptr %15, null
  br i1 %.not.i.i.i.i.i.i, label %_ZN8pybind116detail8accessorINS0_17accessor_policies8str_attrEED2Ev.exit.i.i, label %16

16:                                               ; preds = %14
  %17 = load i64, ptr %15, align 8, !tbaa !80
  %18 = add nsw i64 %17, -1
  store i64 %18, ptr %15, align 8, !tbaa !80
  %.not.i.i.i.i.i.i.i = icmp eq i64 %18, 0
  br i1 %.not.i.i.i.i.i.i.i, label %19, label %_ZN8pybind116detail8accessorINS0_17accessor_policies8str_attrEED2Ev.exit.i.i

19:                                               ; preds = %16
  invoke void @_Py_Dealloc(ptr noundef nonnull %15)
          to label %_ZN8pybind116detail8accessorINS0_17accessor_policies8str_attrEED2Ev.exit.i.i unwind label %20

20:                                               ; preds = %19
  %21 = landingpad { ptr, i32 }
          catch ptr null
  %22 = extractvalue { ptr, i32 } %21, 0
  call void @__clang_call_terminate(ptr %22) #35
  unreachable

_ZN8pybind116detail8accessorINS0_17accessor_policies8str_attrEED2Ev.exit.i.i: ; preds = %19, %16, %14
  call void @llvm.lifetime.end.p0(i64 32, ptr nonnull %4) #34, !noalias !1651
  %23 = load ptr, ptr %10, align 8, !tbaa !92, !noalias !1651
  %.not.i.i.i.i10.i.i = icmp eq ptr %23, null
  br i1 %.not.i.i.i.i10.i.i, label %_ZN8pybind116detail8accessorINS0_17accessor_policies8str_attrEED2Ev.exit12.i.i, label %24

24:                                               ; preds = %_ZN8pybind116detail8accessorINS0_17accessor_policies8str_attrEED2Ev.exit.i.i
  %25 = load i64, ptr %23, align 8, !tbaa !80
  %26 = add nsw i64 %25, -1
  store i64 %26, ptr %23, align 8, !tbaa !80
  %.not.i.i.i.i.i11.i.i = icmp eq i64 %26, 0
  br i1 %.not.i.i.i.i.i11.i.i, label %27, label %_ZN8pybind116detail8accessorINS0_17accessor_policies8str_attrEED2Ev.exit12.i.i

27:                                               ; preds = %24
  invoke void @_Py_Dealloc(ptr noundef nonnull %23)
          to label %_ZN8pybind116detail8accessorINS0_17accessor_policies8str_attrEED2Ev.exit12.i.i unwind label %28

28:                                               ; preds = %27
  %29 = landingpad { ptr, i32 }
          catch ptr null
  %30 = extractvalue { ptr, i32 } %29, 0
  call void @__clang_call_terminate(ptr %30) #35
  unreachable

_ZN8pybind116detail8accessorINS0_17accessor_policies8str_attrEED2Ev.exit12.i.i: ; preds = %27, %24, %_ZN8pybind116detail8accessorINS0_17accessor_policies8str_attrEED2Ev.exit.i.i
  call void @llvm.lifetime.end.p0(i64 32, ptr nonnull %3) #34, !noalias !1651
  %31 = load ptr, ptr %7, align 8, !tbaa !92, !noalias !1651
  %.not.i.i.i.i13.i.i = icmp eq ptr %31, null
  br i1 %.not.i.i.i.i13.i.i, label %"_ZNO8pybind116detail15argument_loaderIJRKNS_6objectEEE9call_implINS_5tupleERZ23test_submodule_picklingRNS_7module_EE3$_5JLm0EENS0_9void_typeEEET_OT0_St16integer_sequenceImJXspT1_EEEOT2_.exit", label %32

32:                                               ; preds = %_ZN8pybind116detail8accessorINS0_17accessor_policies8str_attrEED2Ev.exit12.i.i
  %33 = load i64, ptr %31, align 8, !tbaa !80
  %34 = add nsw i64 %33, -1
  store i64 %34, ptr %31, align 8, !tbaa !80
  %.not.i.i.i.i.i14.i.i = icmp eq i64 %34, 0
  br i1 %.not.i.i.i.i.i14.i.i, label %35, label %"_ZNO8pybind116detail15argument_loaderIJRKNS_6objectEEE9call_implINS_5tupleERZ23test_submodule_picklingRNS_7module_EE3$_5JLm0EENS0_9void_typeEEET_OT0_St16integer_sequenceImJXspT1_EEEOT2_.exit"

35:                                               ; preds = %32
  invoke void @_Py_Dealloc(ptr noundef nonnull %31)
          to label %"_ZNO8pybind116detail15argument_loaderIJRKNS_6objectEEE9call_implINS_5tupleERZ23test_submodule_picklingRNS_7module_EE3$_5JLm0EENS0_9void_typeEEET_OT0_St16integer_sequenceImJXspT1_EEEOT2_.exit" unwind label %36

36:                                               ; preds = %35
  %37 = landingpad { ptr, i32 }
          catch ptr null
  %38 = extractvalue { ptr, i32 } %37, 0
  call void @__clang_call_terminate(ptr %38) #35
  unreachable

39:                                               ; preds = %1
  %40 = landingpad { ptr, i32 }
          cleanup
  call void @_ZN8pybind116detail8accessorINS0_17accessor_policies8str_attrEED2Ev(ptr noundef nonnull align 8 dereferenceable(32) %4) #34
  call void @llvm.lifetime.end.p0(i64 32, ptr nonnull %4) #34, !noalias !1651
  call void @_ZN8pybind116detail8accessorINS0_17accessor_policies8str_attrEED2Ev(ptr noundef nonnull align 8 dereferenceable(32) %3) #34
  call void @llvm.lifetime.end.p0(i64 32, ptr nonnull %3) #34, !noalias !1651
  call void @_ZN8pybind116detail8accessorINS0_17accessor_policies8str_attrEED2Ev(ptr noundef nonnull align 8 dereferenceable(32) %2) #34
  call void @llvm.lifetime.end.p0(i64 32, ptr nonnull %2) #34, !noalias !1651
  resume { ptr, i32 } %40

"_ZNO8pybind116detail15argument_loaderIJRKNS_6objectEEE9call_implINS_5tupleERZ23test_submodule_picklingRNS_7module_EE3$_5JLm0EENS0_9void_typeEEET_OT0_St16integer_sequenceImJXspT1_EEEOT2_.exit": ; preds = %_ZN8pybind116detail8accessorINS0_17accessor_policies8str_attrEED2Ev.exit12.i.i, %32, %35
  call void @llvm.lifetime.end.p0(i64 32, ptr nonnull %2) #34, !noalias !1651
  ret void
}